target datalayout = "e-m:e-p270:32:32-p271:32:32-p272:64:64-i64:64-i128:128-f80:128-n8:16:32:64-S128"
target triple = "x86_64-pc-linux-gnu"

%struct.quic_stream_map_st = type { ptr, %struct.quic_stream_list_node_st, %struct.quic_stream_list_node_st, %struct.quic_stream_list_node_st, i64, i64, i64, i64, i64, ptr, ptr, ptr, ptr, ptr, i32 }
%struct.quic_stream_list_node_st = type { ptr, ptr }
%struct.quic_stream_st = type { %struct.quic_stream_list_node_st, %struct.quic_stream_list_node_st, %struct.quic_stream_list_node_st, ptr, i64, i64, i64, i64, i64, i64, i64, ptr, ptr, %struct.quic_txfc_st, %struct.quic_rxfc_st, i64 }
%struct.quic_txfc_st = type { ptr, i64, i64, i8 }
%struct.quic_rxfc_st = type { i64, i64, i64, i64, i64, i64, i64, %struct.OSSL_TIME, ptr, ptr, ptr, i8, i8, i8, i8 }
%struct.OSSL_TIME = type { i64 }

; Function Attrs: nounwind uwtable
define internal i32 @eligible_for_shutdown_flush(ptr noundef %0) #0 {
  %2 = alloca i32, align 4
  %3 = alloca ptr, align 8
  store ptr %0, ptr %3, align 8, !tbaa !37
  %4 = load ptr, ptr %3, align 8, !tbaa !37
  %5 = getelementptr inbounds nuw %struct.quic_stream_st, ptr %4, i32 0, i32 15
  %6 = load i64, ptr %5, align 8
  %7 = lshr i64 %6, 8
  %8 = and i64 %7, 255
  %9 = trunc i64 %8 to i32
  switch i32 %9, label %18 [
    i32 2, label %10
    i32 3, label %10
  ]

10:                                               ; preds = %1, %1
  %11 = load ptr, ptr %3, align 8, !tbaa !37
  %12 = getelementptr inbounds nuw %struct.quic_stream_st, ptr %11, i32 0, i32 11
  %13 = load ptr, ptr %12, align 8, !tbaa !52
  %14 = call i32 @ossl_quic_sstream_is_totally_acked(ptr noundef %13)
  %15 = icmp ne i32 %14, 0
  %16 = xor i1 %15, true
  %17 = zext i1 %16 to i32
  store i32 %17, ptr %2, align 4
  br label %19

18:                                               ; preds = %1
  store i32 0, ptr %2, align 4
  br label %19

19:                                               ; preds = %18, %10
  %20 = load i32, ptr %2, align 4
  ret i32 %20
}

; Function Attrs: nounwind uwtable
define internal void @begin_shutdown_flush_each(ptr noundef %0, ptr noundef %1) #0 {
  %3 = alloca ptr, align 8
  %4 = alloca ptr, align 8
  %5 = alloca ptr, align 8
  %6 = alloca i32, align 4
  store ptr %0, ptr %3, align 8, !tbaa !37
  store ptr %1, ptr %4, align 8, !tbaa !8
  call void @llvm.lifetime.start.p0(i64 8, ptr %5) #5
  %7 = load ptr, ptr %4, align 8, !tbaa !8
  store ptr %7, ptr %5, align 8, !tbaa !3
  %8 = load ptr, ptr %3, align 8, !tbaa !37
  %9 = call i32 @eligible_for_shutdown_flush(ptr noundef %8)
  %10 = icmp ne i32 %9, 0
  br i1 %10, label %11, label %19

11:                                               ; preds = %2
  %12 = load ptr, ptr %3, align 8, !tbaa !37
  %13 = getelementptr inbounds nuw %struct.quic_stream_st, ptr %12, i32 0, i32 15
  %14 = load i64, ptr %13, align 8
  %15 = lshr i64 %14, 39
  %16 = and i64 %15, 1
  %17 = trunc i64 %16 to i32
  %18 = icmp ne i32 %17, 0
  br i1 %18, label %19, label %20

19:                                               ; preds = %11, %2
  store i32 1, ptr %6, align 4
  br label %30

20:                                               ; preds = %11
  %21 = load ptr, ptr %3, align 8, !tbaa !37
  %22 = getelementptr inbounds nuw %struct.quic_stream_st, ptr %21, i32 0, i32 15
  %23 = load i64, ptr %22, align 8
  %24 = and i64 %23, -549755813889
  %25 = or i64 %24, 549755813888
  store i64 %25, ptr %22, align 8
  %26 = load ptr, ptr %5, align 8, !tbaa !3
  %27 = getelementptr inbounds nuw %struct.quic_stream_map_st, ptr %26, i32 0, i32 8
  %28 = load i64, ptr %27, align 8, !tbaa !31
  %29 = add i64 %28, 1
  store i64 %29, ptr %27, align 8, !tbaa !31
  store i32 0, ptr %6, align 4
  br label %30

30:                                               ; preds = %20, %19
  call void @llvm.lifetime.end.p0(i64 8, ptr %5) #5
  %31 = load i32, ptr %6, align 4
  switch i32 %31, label %33 [
    i32 0, label %32
    i32 1, label %32
  ]

32:                                               ; preds = %30, %30
  ret void

33:                                               ; preds = %30
  unreachable
}