; Function Attrs: nounwind uwtable
define internal void @begin_shutdown_flush_each(ptr noundef captures(none) %0, ptr noundef captures(none) %1) #0 {
  %3 = getelementptr inbounds nuw i8, ptr %0, i64 256
  %4 = load i64, ptr %3, align 8
  %5 = and i64 %4, 65024
  %switch.i = icmp eq i64 %5, 512
  br i1 %switch.i, label %eligible_for_shutdown_flush.exit, label %eligible_for_shutdown_flush.exit.thread

eligible_for_shutdown_flush.exit:                 ; preds = %2
  %6 = getelementptr inbounds nuw i8, ptr %0, i64 112
  %7 = load ptr, ptr %6, align 8, !tbaa !41
  %8 = tail call i32 @ossl_quic_sstream_is_totally_acked(ptr noundef %7) #13
  %.not.i.not = icmp eq i32 %8, 0
  br i1 %.not.i.not, label %9, label %eligible_for_shutdown_flush.exit.thread

9:                                                ; preds = %eligible_for_shutdown_flush.exit
  %10 = load i64, ptr %3, align 8
  %11 = and i64 %10, 549755813888
  %.not5 = icmp eq i64 %11, 0
  br i1 %.not5, label %12, label %eligible_for_shutdown_flush.exit.thread

12:                                               ; preds = %9
  %13 = or disjoint i64 %10, 549755813888
  store i64 %13, ptr %3, align 8
  %14 = getelementptr inbounds nuw i8, ptr %1, i64 88
  %15 = load i64, ptr %14, align 8, !tbaa !44
  %16 = add i64 %15, 1
  store i64 %16, ptr %14, align 8, !tbaa !44
  br label %eligible_for_shutdown_flush.exit.thread

eligible_for_shutdown_flush.exit.thread:          ; preds = %2, %eligible_for_shutdown_flush.exit, %9, %12
  ret void
}